; Function Attrs: nofree norecurse nosync nounwind memory(readwrite, inaccessiblemem: none) uwtable
define i32 @ff_vvc_mts_idx(ptr noundef readonly captures(none) %0) local_unnamed_addr #3 {
  %2 = getelementptr inbounds nuw i8, ptr %0, i64 4580560
  %3 = load ptr, ptr %2, align 16, !tbaa !67
  %4 = getelementptr inbounds nuw i8, ptr %3, i64 2672
  %5 = getelementptr inbounds nuw i8, ptr %3, i64 400
  %6 = getelementptr inbounds nuw i8, ptr %3, i64 2676
  %7 = getelementptr inbounds nuw i8, ptr %3, i64 2688
  %8 = getelementptr inbounds nuw i8, ptr %3, i64 2696
  %.promoted = load i32, ptr %6, align 4, !tbaa !100
  %.promoted10 = load i32, ptr %4, align 8, !tbaa !70
  br label %9

9:                                                ; preds = %1, %88
  %indvars.iv = phi i64 [ 0, %1 ], [ %indvars.iv.next, %88 ]
  %10 = phi i32 [ %.promoted10, %1 ], [ %66, %88 ]
  %11 = phi i32 [ %.promoted, %1 ], [ %38, %88 ]
  %12 = getelementptr inbounds nuw %struct.VVCCabacState, ptr %5, i64 %indvars.iv
  %13 = getelementptr inbounds nuw i8, ptr %12, i64 636
  %14 = ashr i32 %11, 5
  %15 = getelementptr inbounds nuw i8, ptr %12, i64 638
  %16 = load i16, ptr %15, align 2, !tbaa !58
  %17 = zext i16 %16 to i32
  %18 = load i16, ptr %13, align 2, !tbaa !58
  %19 = zext i16 %18 to i32
  %20 = shl nuw nsw i32 %19, 4
  %21 = add nuw nsw i32 %20, %17
  %.not.i = icmp samesign ult i32 %21, 16384
  %22 = sub nsw i32 32767, %21
  %23 = select i1 %.not.i, i32 %21, i32 %22
  %24 = ashr i32 %23, 9
  %25 = mul nsw i32 %24, %14
  %26 = ashr i32 %25, 1
  %27 = add nsw i32 %26, 4
  %28 = sub nsw i32 %11, %27
  %29 = shl i32 %28, 17
  %30 = icmp slt i32 %29, %10
  %31 = select i1 %30, i32 %29, i32 0
  %32 = sub nsw i32 %10, %31
  %33 = select i1 %30, i32 %27, i32 %28
  %34 = sext i32 %33 to i64
  %35 = getelementptr inbounds i8, ptr @ff_h264_cabac_tables, i64 %34
  %36 = load i8, ptr %35, align 1, !tbaa !97
  %37 = zext i8 %36 to i32
  %38 = shl i32 %33, %37
  store i32 %38, ptr %6, align 4, !tbaa !100
  %39 = shl i32 %32, %37
  store i32 %39, ptr %4, align 8, !tbaa !70
  %40 = and i32 %39, 65535
  %.not42.i = icmp eq i32 %40, 0
  br i1 %.not42.i, label %41, label %vvc_get_cabac.exit

41:                                               ; preds = %9
  %42 = add nsw i32 %39, -1
  %43 = xor i32 %42, %39
  %44 = lshr i32 %43, 15
  %45 = zext nneg i32 %44 to i64
  %46 = getelementptr inbounds nuw i8, ptr @ff_h264_cabac_tables, i64 %45
  %47 = load i8, ptr %46, align 1, !tbaa !97
  %48 = zext i8 %47 to i32
  %49 = sub nsw i32 7, %48
  %50 = load ptr, ptr %7, align 8, !tbaa !68
  %51 = load i8, ptr %50, align 1, !tbaa !97
  %52 = zext i8 %51 to i32
  %53 = shl nuw nsw i32 %52, 9
  %54 = getelementptr inbounds nuw i8, ptr %50, i64 1
  %55 = load i8, ptr %54, align 1, !tbaa !97
  %56 = zext i8 %55 to i32
  %57 = shl nuw nsw i32 %56, 1
  %58 = or disjoint i32 %57, %53
  %59 = add nsw i32 %58, -65535
  %60 = shl nsw i32 %59, %49
  %61 = add i32 %60, %39
  store i32 %61, ptr %4, align 8, !tbaa !70
  %62 = load ptr, ptr %8, align 8, !tbaa !71
  %63 = icmp ult ptr %50, %62
  br i1 %63, label %64, label %vvc_get_cabac.exit

64:                                               ; preds = %41
  %65 = getelementptr inbounds nuw i8, ptr %50, i64 2
  store ptr %65, ptr %7, align 8, !tbaa !68
  br label %vvc_get_cabac.exit

vvc_get_cabac.exit:                               ; preds = %9, %41, %64
  %66 = phi i32 [ %39, %9 ], [ %61, %41 ], [ %61, %64 ]
  %67 = lshr i32 %21, 14
  %68 = zext i1 %30 to i32
  %69 = xor i32 %67, %68
  %70 = getelementptr inbounds nuw i8, ptr %12, i64 640
  %71 = load i8, ptr %70, align 2, !tbaa !97
  %72 = zext i8 %71 to i32
  %73 = lshr i32 %19, %72
  %74 = sub nsw i32 %19, %73
  %75 = mul nuw nsw i32 %69, 1023
  %76 = lshr i32 %75, %72
  %77 = add nsw i32 %74, %76
  %78 = trunc i32 %77 to i16
  store i16 %78, ptr %13, align 2, !tbaa !58
  %79 = getelementptr inbounds nuw i8, ptr %12, i64 641
  %80 = load i8, ptr %79, align 1, !tbaa !97
  %81 = zext i8 %80 to i32
  %82 = lshr i32 %17, %81
  %83 = sub nsw i32 %17, %82
  %84 = mul nuw nsw i32 %69, 16383
  %85 = lshr i32 %84, %81
  %86 = add nsw i32 %83, %85
  %87 = trunc i32 %86 to i16
  store i16 %87, ptr %15, align 2, !tbaa !58
  %.not = icmp eq i32 %67, %68
  br i1 %.not, label %.split.loop.exit12, label %88

88:                                               ; preds = %vvc_get_cabac.exit
  %indvars.iv.next = add nuw nsw i64 %indvars.iv, 1
  %exitcond.not = icmp eq i64 %indvars.iv.next, 4
  br i1 %exitcond.not, label %.split.loop.exit, label %9, !llvm.loop !225

.split.loop.exit12:                               ; preds = %vvc_get_cabac.exit
  %89 = trunc nuw nsw i64 %indvars.iv to i32
  br label %.split.loop.exit

.split.loop.exit:                                 ; preds = %88, %.split.loop.exit12
  %.0.lcssa = phi i32 [ %89, %.split.loop.exit12 ], [ 4, %88 ]
  ret i32 %.0.lcssa
}